target datalayout = "e-m:e-p270:32:32-p271:32:32-p272:64:64-i64:64-i128:128-f80:128-n8:16:32:64-S128"
target triple = "x86_64-pc-linux-gnu"

%struct.pmix_bfrops_base_component_t = type { %struct.pmix_mca_base_component_2_1_0_t, i32, %struct.pmix_pointer_array_t, ptr }
%struct.pmix_mca_base_component_2_1_0_t = type { i32, i32, i32, [16 x i8], i32, i32, i32, [32 x i8], i32, i32, i32, [64 x i8], i32, i32, i32, ptr, ptr, ptr, ptr, [32 x i8] }
%struct.pmix_pointer_array_t = type { %struct.pmix_object_t, i32, i32, i32, i32, i32, ptr, ptr }
%struct.pmix_object_t = type { %union.pthread_mutex_t, ptr, i32, %struct.pmix_tma }
%union.pthread_mutex_t = type { %struct.__pthread_mutex_s }
%struct.__pthread_mutex_s = type { i32, i32, i32, i32, i32, i16, i16, %struct.__pthread_internal_list }
%struct.__pthread_internal_list = type { ptr, ptr }
%struct.pmix_tma = type { ptr, ptr, ptr, ptr, ptr, ptr, ptr, ptr }
%struct.pmix_mca_base_framework_t = type { ptr, ptr, ptr, ptr, ptr, ptr, i32, i32, ptr, ptr, i32, i32, %struct.pmix_list_t, %struct.pmix_list_t }
%struct.pmix_list_t = type { %struct.pmix_object_t, %struct.pmix_list_item_t, i64 }
%struct.pmix_list_item_t = type { %struct.pmix_object_t, ptr, ptr, i32 }
%struct.pmix_output_desc_t = type { i8, i8, i32, i8, i32, ptr, ptr, i32, ptr, i32, i8, i8, i8, i8, ptr, i32, i32 }
%struct.pmix_buffer_t = type { %struct.pmix_object_t, i8, ptr, ptr, ptr, i64, i64 }
%struct.pmix_bfrop_type_info_t = type { %struct.pmix_object_t, i16, ptr, ptr, ptr, ptr, ptr }

@pmix_mca_bfrops_v20_component = external global %struct.pmix_bfrops_base_component_t, align 8
@pmix_bfrops_base_framework = external global %struct.pmix_mca_base_framework_t, align 8
@pmix_output_info = external global [0 x %struct.pmix_output_desc_t], align 8
@.str = private unnamed_addr constant [59 x i8] c"pmix20_bfrop_unpack: inadequate space ( %p, %p, %lu, %d )\0A\00", align 1
@.str.1 = private unnamed_addr constant [61 x i8] c"pmix20_bfrop_unpack: found %d values for %d provided storage\00", align 1

; Function Attrs: inlinehint nounwind uwtable
define internal ptr @pmix_pointer_array_get_item(ptr noundef %0, i32 noundef %1) #3 {
  %3 = alloca ptr, align 8
  %4 = alloca ptr, align 8
  %5 = alloca i32, align 4
  %6 = alloca ptr, align 8
  %7 = alloca i32, align 4
  store ptr %0, ptr %4, align 8, !tbaa !13
  store i32 %1, ptr %5, align 4, !tbaa !11
  call void @llvm.lifetime.start.p0(i64 8, ptr %6) #11
  %8 = load i32, ptr %5, align 4, !tbaa !11
  %9 = icmp sgt i32 0, %8
  br i1 %9, label %16, label %10

10:                                               ; preds = %2
  %11 = load ptr, ptr %4, align 8, !tbaa !13
  %12 = getelementptr inbounds nuw %struct.pmix_pointer_array_t, ptr %11, i32 0, i32 3
  %13 = load i32, ptr %12, align 8, !tbaa !33
  %14 = load i32, ptr %5, align 4, !tbaa !11
  %15 = icmp sle i32 %13, %14
  br label %16

16:                                               ; preds = %10, %2
  %17 = phi i1 [ true, %2 ], [ %15, %10 ]
  %18 = xor i1 %17, true
  %19 = xor i1 %18, true
  %20 = zext i1 %19 to i32
  %21 = sext i32 %20 to i64
  %22 = call i64 @llvm.expect.i64(i64 %21, i64 0)
  %23 = icmp ne i64 %22, 0
  br i1 %23, label %24, label %25

24:                                               ; preds = %16
  store ptr null, ptr %3, align 8
  store i32 1, ptr %7, align 4
  br label %34

25:                                               ; preds = %16
  %26 = load ptr, ptr %4, align 8, !tbaa !13
  %27 = getelementptr inbounds nuw %struct.pmix_pointer_array_t, ptr %26, i32 0, i32 7
  %28 = load ptr, ptr %27, align 8, !tbaa !36
  %29 = load i32, ptr %5, align 4, !tbaa !11
  %30 = sext i32 %29 to i64
  %31 = getelementptr inbounds ptr, ptr %28, i64 %30
  %32 = load ptr, ptr %31, align 8, !tbaa !3
  store ptr %32, ptr %6, align 8, !tbaa !3
  %33 = load ptr, ptr %6, align 8, !tbaa !3
  store ptr %33, ptr %3, align 8
  store i32 1, ptr %7, align 4
  br label %34

34:                                               ; preds = %25, %24
  call void @llvm.lifetime.end.p0(i64 8, ptr %6) #11
  %35 = load ptr, ptr %3, align 8
  ret ptr %35
}

; Function Attrs: nounwind uwtable
define i32 @pmix20_bfrop_unpack(ptr noundef %0, ptr noundef %1, ptr noundef %2, i16 noundef zeroext %3) #0 {
  %5 = alloca i32, align 4
  %6 = alloca ptr, align 8
  %7 = alloca ptr, align 8
  %8 = alloca ptr, align 8
  %9 = alloca i16, align 2
  %10 = alloca i32, align 4
  %11 = alloca i32, align 4
  %12 = alloca i32, align 4
  %13 = alloca i32, align 4
  %14 = alloca i16, align 2
  %15 = alloca ptr, align 8
  %16 = alloca i32, align 4
  %17 = alloca ptr, align 8
  store ptr %0, ptr %6, align 8, !tbaa !3
  store ptr %1, ptr %7, align 8, !tbaa !3
  store ptr %2, ptr %8, align 8, !tbaa !7
  store i16 %3, ptr %9, align 2, !tbaa !9
  call void @llvm.lifetime.start.p0(i64 4, ptr %10) #11
  call void @llvm.lifetime.start.p0(i64 4, ptr %11) #11
  call void @llvm.lifetime.start.p0(i64 4, ptr %12) #11
  call void @llvm.lifetime.start.p0(i64 4, ptr %13) #11
  store i32 1, ptr %13, align 4, !tbaa !11
  call void @llvm.lifetime.start.p0(i64 2, ptr %14) #11
  call void @llvm.lifetime.start.p0(i64 8, ptr %15) #11
  store ptr getelementptr inbounds nuw (%struct.pmix_bfrops_base_component_t, ptr @pmix_mca_bfrops_v20_component, i32 0, i32 2), ptr %15, align 8, !tbaa !13
  %18 = load ptr, ptr %6, align 8, !tbaa !3
  %19 = icmp eq ptr null, %18
  br i1 %19, label %26, label %20

20:                                               ; preds = %4
  %21 = load ptr, ptr %7, align 8, !tbaa !3
  %22 = icmp eq ptr null, %21
  br i1 %22, label %26, label %23

23:                                               ; preds = %20
  %24 = load ptr, ptr %8, align 8, !tbaa !7
  %25 = icmp eq ptr null, %24
  br i1 %25, label %26, label %27

26:                                               ; preds = %23, %20, %4
  store i32 -27, ptr %5, align 4
  store i32 1, ptr %16, align 4
  br label %160

27:                                               ; preds = %23
  %28 = load ptr, ptr %8, align 8, !tbaa !7
  %29 = load i32, ptr %28, align 4, !tbaa !11
  %30 = icmp eq i32 0, %29
  br i1 %30, label %31, label %54

31:                                               ; preds = %27
  %32 = load i32, ptr getelementptr inbounds nuw (%struct.pmix_mca_base_framework_t, ptr @pmix_bfrops_base_framework, i32 0, i32 11), align 4, !tbaa !15
  %33 = icmp sge i32 %32, 0
  br i1 %33, label %34, label %53

34:                                               ; preds = %31
  %35 = load i32, ptr getelementptr inbounds nuw (%struct.pmix_mca_base_framework_t, ptr @pmix_bfrops_base_framework, i32 0, i32 11), align 4, !tbaa !15
  %36 = icmp slt i32 %35, 64
  br i1 %36, label %37, label %53

37:                                               ; preds = %34
  %38 = load i32, ptr getelementptr inbounds nuw (%struct.pmix_mca_base_framework_t, ptr @pmix_bfrops_base_framework, i32 0, i32 11), align 4, !tbaa !15
  %39 = sext i32 %38 to i64
  %40 = getelementptr inbounds [0 x %struct.pmix_output_desc_t], ptr @pmix_output_info, i64 0, i64 %39
  %41 = getelementptr inbounds nuw %struct.pmix_output_desc_t, ptr %40, i32 0, i32 2
  %42 = load i32, ptr %41, align 4, !tbaa !26
  %43 = icmp sge i32 %42, 20
  br i1 %43, label %44, label %53

44:                                               ; preds = %37
  %45 = load i32, ptr getelementptr inbounds nuw (%struct.pmix_mca_base_framework_t, ptr @pmix_bfrops_base_framework, i32 0, i32 11), align 4, !tbaa !15
  %46 = load ptr, ptr %6, align 8, !tbaa !3
  %47 = load ptr, ptr %7, align 8, !tbaa !3
  %48 = load ptr, ptr %8, align 8, !tbaa !7
  %49 = load i32, ptr %48, align 4, !tbaa !11
  %50 = sext i32 %49 to i64
  %51 = load i16, ptr %9, align 2, !tbaa !9
  %52 = zext i16 %51 to i32
  call void (i32, ptr, ...) @pmix_output(i32 noundef %45, ptr noundef @.str, ptr noundef %46, ptr noundef %47, i64 noundef %50, i32 noundef %52)
  br label %53

53:                                               ; preds = %44, %37, %34, %31
  store i32 -19, ptr %5, align 4
  store i32 1, ptr %16, align 4
  br label %160

54:                                               ; preds = %27
  %55 = load ptr, ptr %6, align 8, !tbaa !3
  %56 = getelementptr inbounds nuw %struct.pmix_buffer_t, ptr %55, i32 0, i32 1
  %57 = load i8, ptr %56, align 8, !tbaa !29
  %58 = zext i8 %57 to i32
  %59 = icmp eq i32 2, %58
  br i1 %59, label %60, label %75

60:                                               ; preds = %54
  %61 = load ptr, ptr %15, align 8, !tbaa !13
  %62 = load ptr, ptr %6, align 8, !tbaa !3
  %63 = call i32 @pmix20_bfrop_get_data_type(ptr noundef %61, ptr noundef %62, ptr noundef %14)
  store i32 %63, ptr %10, align 4, !tbaa !11
  %64 = icmp ne i32 0, %63
  br i1 %64, label %65, label %68

65:                                               ; preds = %60
  %66 = load ptr, ptr %8, align 8, !tbaa !7
  store i32 0, ptr %66, align 4, !tbaa !11
  %67 = load i32, ptr %10, align 4, !tbaa !11
  store i32 %67, ptr %5, align 4
  store i32 1, ptr %16, align 4
  br label %160

68:                                               ; preds = %60
  %69 = load i16, ptr %14, align 2, !tbaa !9
  %70 = zext i16 %69 to i32
  %71 = icmp ne i32 9, %70
  br i1 %71, label %72, label %74

72:                                               ; preds = %68
  %73 = load ptr, ptr %8, align 8, !tbaa !7
  store i32 0, ptr %73, align 4, !tbaa !11
  store i32 -20, ptr %5, align 4
  store i32 1, ptr %16, align 4
  br label %160

74:                                               ; preds = %68
  br label %75

75:                                               ; preds = %74, %54
  store i32 1, ptr %13, align 4, !tbaa !11
  br label %76

76:                                               ; preds = %75
  call void @llvm.lifetime.start.p0(i64 8, ptr %17) #11
  %77 = load ptr, ptr %15, align 8, !tbaa !13
  %78 = call ptr @pmix_pointer_array_get_item(ptr noundef %77, i32 noundef 9)
  store ptr %78, ptr %17, align 8, !tbaa !3
  %79 = load ptr, ptr %17, align 8, !tbaa !3
  %80 = icmp eq ptr null, %79
  br i1 %80, label %81, label %82

81:                                               ; preds = %76
  store i32 -16, ptr %10, align 4, !tbaa !11
  br label %89

82:                                               ; preds = %76
  %83 = load ptr, ptr %17, align 8, !tbaa !3
  %84 = getelementptr inbounds nuw %struct.pmix_bfrop_type_info_t, ptr %83, i32 0, i32 4
  %85 = load ptr, ptr %84, align 8, !tbaa !31
  %86 = load ptr, ptr %15, align 8, !tbaa !13
  %87 = load ptr, ptr %6, align 8, !tbaa !3
  %88 = call i32 %85(ptr noundef %86, ptr noundef %87, ptr noundef %12, ptr noundef %13, i16 noundef zeroext 9)
  store i32 %88, ptr %10, align 4, !tbaa !11
  br label %89

89:                                               ; preds = %82, %81
  call void @llvm.lifetime.end.p0(i64 8, ptr %17) #11
  br label %90

90:                                               ; preds = %89
  br label %91

91:                                               ; preds = %90
  %92 = load i32, ptr %10, align 4, !tbaa !11
  %93 = icmp ne i32 0, %92
  br i1 %93, label %94, label %97

94:                                               ; preds = %91
  %95 = load ptr, ptr %8, align 8, !tbaa !7
  store i32 0, ptr %95, align 4, !tbaa !11
  %96 = load i32, ptr %10, align 4, !tbaa !11
  store i32 %96, ptr %5, align 4
  store i32 1, ptr %16, align 4
  br label %160

97:                                               ; preds = %91
  %98 = load i32, ptr getelementptr inbounds nuw (%struct.pmix_mca_base_framework_t, ptr @pmix_bfrops_base_framework, i32 0, i32 11), align 4, !tbaa !15
  %99 = icmp sge i32 %98, 0
  br i1 %99, label %100, label %115

100:                                              ; preds = %97
  %101 = load i32, ptr getelementptr inbounds nuw (%struct.pmix_mca_base_framework_t, ptr @pmix_bfrops_base_framework, i32 0, i32 11), align 4, !tbaa !15
  %102 = icmp slt i32 %101, 64
  br i1 %102, label %103, label %115

103:                                              ; preds = %100
  %104 = load i32, ptr getelementptr inbounds nuw (%struct.pmix_mca_base_framework_t, ptr @pmix_bfrops_base_framework, i32 0, i32 11), align 4, !tbaa !15
  %105 = sext i32 %104 to i64
  %106 = getelementptr inbounds [0 x %struct.pmix_output_desc_t], ptr @pmix_output_info, i64 0, i64 %105
  %107 = getelementptr inbounds nuw %struct.pmix_output_desc_t, ptr %106, i32 0, i32 2
  %108 = load i32, ptr %107, align 4, !tbaa !26
  %109 = icmp sge i32 %108, 20
  br i1 %109, label %110, label %115

110:                                              ; preds = %103
  %111 = load i32, ptr getelementptr inbounds nuw (%struct.pmix_mca_base_framework_t, ptr @pmix_bfrops_base_framework, i32 0, i32 11), align 4, !tbaa !15
  %112 = load i32, ptr %12, align 4, !tbaa !11
  %113 = load ptr, ptr %8, align 8, !tbaa !7
  %114 = load i32, ptr %113, align 4, !tbaa !11
  call void (i32, ptr, ...) @pmix_output(i32 noundef %111, ptr noundef @.str.1, i32 noundef %112, i32 noundef %114)
  br label %115

115:                                              ; preds = %110, %103, %100, %97
  %116 = load i32, ptr %12, align 4, !tbaa !11
  %117 = load ptr, ptr %8, align 8, !tbaa !7
  %118 = load i32, ptr %117, align 4, !tbaa !11
  %119 = icmp sgt i32 %116, %118
  br i1 %119, label %120, label %145

120:                                              ; preds = %115
  %121 = load ptr, ptr %8, align 8, !tbaa !7
  %122 = load i32, ptr %121, align 4, !tbaa !11
  store i32 %122, ptr %12, align 4, !tbaa !11
  %123 = load i32, ptr getelementptr inbounds nuw (%struct.pmix_mca_base_framework_t, ptr @pmix_bfrops_base_framework, i32 0, i32 11), align 4, !tbaa !15
  %124 = icmp sge i32 %123, 0
  br i1 %124, label %125, label %144

125:                                              ; preds = %120
  %126 = load i32, ptr getelementptr inbounds nuw (%struct.pmix_mca_base_framework_t, ptr @pmix_bfrops_base_framework, i32 0, i32 11), align 4, !tbaa !15
  %127 = icmp slt i32 %126, 64
  br i1 %127, label %128, label %144

128:                                              ; preds = %125
  %129 = load i32, ptr getelementptr inbounds nuw (%struct.pmix_mca_base_framework_t, ptr @pmix_bfrops_base_framework, i32 0, i32 11), align 4, !tbaa !15
  %130 = sext i32 %129 to i64
  %131 = getelementptr inbounds [0 x %struct.pmix_output_desc_t], ptr @pmix_output_info, i64 0, i64 %130
  %132 = getelementptr inbounds nuw %struct.pmix_output_desc_t, ptr %131, i32 0, i32 2
  %133 = load i32, ptr %132, align 4, !tbaa !26
  %134 = icmp sge i32 %133, 20
  br i1 %134, label %135, label %144

135:                                              ; preds = %128
  %136 = load i32, ptr getelementptr inbounds nuw (%struct.pmix_mca_base_framework_t, ptr @pmix_bfrops_base_framework, i32 0, i32 11), align 4, !tbaa !15
  %137 = load ptr, ptr %6, align 8, !tbaa !3
  %138 = load ptr, ptr %7, align 8, !tbaa !3
  %139 = load ptr, ptr %8, align 8, !tbaa !7
  %140 = load i32, ptr %139, align 4, !tbaa !11
  %141 = sext i32 %140 to i64
  %142 = load i16, ptr %9, align 2, !tbaa !9
  %143 = zext i16 %142 to i32
  call void (i32, ptr, ...) @pmix_output(i32 noundef %136, ptr noundef @.str, ptr noundef %137, ptr noundef %138, i64 noundef %141, i32 noundef %143)
  br label %144

144:                                              ; preds = %135, %128, %125, %120
  store i32 -19, ptr %11, align 4, !tbaa !11
  br label %148

145:                                              ; preds = %115
  %146 = load i32, ptr %12, align 4, !tbaa !11
  %147 = load ptr, ptr %8, align 8, !tbaa !7
  store i32 %146, ptr %147, align 4, !tbaa !11
  store i32 0, ptr %11, align 4, !tbaa !11
  br label %148

148:                                              ; preds = %145, %144
  %149 = load ptr, ptr %15, align 8, !tbaa !13
  %150 = load ptr, ptr %6, align 8, !tbaa !3
  %151 = load ptr, ptr %7, align 8, !tbaa !3
  %152 = load i16, ptr %9, align 2, !tbaa !9
  %153 = call i32 @pmix20_bfrop_unpack_buffer(ptr noundef %149, ptr noundef %150, ptr noundef %151, ptr noundef %12, i16 noundef zeroext %152)
  store i32 %153, ptr %10, align 4, !tbaa !11
  %154 = icmp ne i32 0, %153
  br i1 %154, label %155, label %158

155:                                              ; preds = %148
  %156 = load ptr, ptr %8, align 8, !tbaa !7
  store i32 0, ptr %156, align 4, !tbaa !11
  %157 = load i32, ptr %10, align 4, !tbaa !11
  store i32 %157, ptr %11, align 4, !tbaa !11
  br label %158

158:                                              ; preds = %155, %148
  %159 = load i32, ptr %11, align 4, !tbaa !11
  store i32 %159, ptr %5, align 4
  store i32 1, ptr %16, align 4
  br label %160

160:                                              ; preds = %158, %94, %72, %65, %53, %26
  call void @llvm.lifetime.end.p0(i64 8, ptr %15) #11
  call void @llvm.lifetime.end.p0(i64 2, ptr %14) #11
  call void @llvm.lifetime.end.p0(i64 4, ptr %13) #11
  call void @llvm.lifetime.end.p0(i64 4, ptr %12) #11
  call void @llvm.lifetime.end.p0(i64 4, ptr %11) #11
  call void @llvm.lifetime.end.p0(i64 4, ptr %10) #11
  %161 = load i32, ptr %5, align 4
  ret i32 %161
}