; Function Attrs: nounwind uwtable
define i32 @pmix20_bfrop_unpack(ptr noundef %0, ptr noundef %1, ptr noundef captures(address_is_null) %2, i16 noundef zeroext %3) local_unnamed_addr #0 {
  %5 = alloca i32, align 4
  %6 = alloca i32, align 4
  %7 = alloca i16, align 2
  call void @llvm.lifetime.start.p0(i64 4, ptr nonnull %5) #10
  call void @llvm.lifetime.start.p0(i64 4, ptr nonnull %6) #10
  call void @llvm.lifetime.start.p0(i64 2, ptr nonnull %7) #10
  %8 = icmp eq ptr %0, null
  %9 = icmp eq ptr %1, null
  %or.cond = or i1 %8, %9
  %10 = icmp eq ptr %2, null
  %or.cond3 = or i1 %or.cond, %10
  br i1 %or.cond3, label %71, label %11

11:                                               ; preds = %4
  %12 = load i32, ptr %2, align 4, !tbaa !3
  %13 = icmp eq i32 %12, 0
  br i1 %13, label %14, label %23

14:                                               ; preds = %11
  %15 = load i32, ptr getelementptr inbounds nuw (i8, ptr @pmix_bfrops_base_framework, i64 76), align 4, !tbaa !7
  %or.cond5 = icmp ult i32 %15, 64
  br i1 %or.cond5, label %16, label %71

16:                                               ; preds = %14
  %17 = zext nneg i32 %15 to i64
  %18 = getelementptr inbounds nuw [0 x %struct.pmix_output_desc_t], ptr @pmix_output_info, i64 0, i64 %17, i32 2
  %19 = load i32, ptr %18, align 4, !tbaa !19
  %20 = icmp sgt i32 %19, 19
  br i1 %20, label %21, label %71

21:                                               ; preds = %16
  %22 = zext i16 %3 to i32
  tail call void (i32, ptr, ...) @pmix_output(i32 noundef %15, ptr noundef nonnull @.str, ptr noundef nonnull %0, ptr noundef nonnull %1, i64 noundef 0, i32 noundef %22) #10
  br label %71

23:                                               ; preds = %11
  %24 = getelementptr inbounds nuw i8, ptr %0, i64 120
  %25 = load i8, ptr %24, align 8, !tbaa !22
  %26 = icmp eq i8 %25, 2
  br i1 %26, label %27, label %33

27:                                               ; preds = %23
  %28 = call i32 @pmix20_bfrop_get_data_type(ptr noundef nonnull getelementptr inbounds nuw (i8, ptr @pmix_mca_bfrops_v20_component, i64 232), ptr noundef nonnull %0, ptr noundef nonnull %7) #10
  %.not = icmp eq i32 %28, 0
  br i1 %.not, label %30, label %29

29:                                               ; preds = %27
  store i32 0, ptr %2, align 4, !tbaa !3
  br label %71

30:                                               ; preds = %27
  %31 = load i16, ptr %7, align 2, !tbaa !24
  %.not60 = icmp eq i16 %31, 9
  br i1 %.not60, label %33, label %32

32:                                               ; preds = %30
  store i32 0, ptr %2, align 4, !tbaa !3
  br label %71

33:                                               ; preds = %30, %23
  store i32 1, ptr %6, align 4, !tbaa !3
  %34 = load i32, ptr getelementptr inbounds nuw (i8, ptr @pmix_mca_bfrops_v20_component, i64 360), align 8, !tbaa !26
  %.not.i = icmp sgt i32 %34, 9
  br i1 %.not.i, label %pmix_pointer_array_get_item.exit, label %.thread, !prof !29

pmix_pointer_array_get_item.exit:                 ; preds = %33
  %35 = load ptr, ptr getelementptr inbounds nuw (i8, ptr @pmix_mca_bfrops_v20_component, i64 384), align 8, !tbaa !30
  %36 = getelementptr inbounds nuw i8, ptr %35, i64 72
  %37 = load ptr, ptr %36, align 8, !tbaa !31
  %38 = icmp eq ptr %37, null
  br i1 %38, label %.thread, label %39

39:                                               ; preds = %pmix_pointer_array_get_item.exit
  %40 = getelementptr inbounds nuw i8, ptr %37, i64 144
  %41 = load ptr, ptr %40, align 8, !tbaa !32
  %42 = call i32 %41(ptr noundef nonnull getelementptr inbounds nuw (i8, ptr @pmix_mca_bfrops_v20_component, i64 232), ptr noundef nonnull %0, ptr noundef nonnull %5, ptr noundef nonnull %6, i16 noundef zeroext 9) #10
  %.not61 = icmp eq i32 %42, 0
  br i1 %.not61, label %43, label %.thread

.thread:                                          ; preds = %33, %pmix_pointer_array_get_item.exit, %39
  %.04666 = phi i32 [ %42, %39 ], [ -16, %pmix_pointer_array_get_item.exit ], [ -16, %33 ]
  store i32 0, ptr %2, align 4, !tbaa !3
  br label %71

43:                                               ; preds = %39
  %44 = load i32, ptr getelementptr inbounds nuw (i8, ptr @pmix_bfrops_base_framework, i64 76), align 4, !tbaa !7
  %or.cond7 = icmp ult i32 %44, 64
  br i1 %or.cond7, label %45, label %53

45:                                               ; preds = %43
  %46 = zext nneg i32 %44 to i64
  %47 = getelementptr inbounds nuw [0 x %struct.pmix_output_desc_t], ptr @pmix_output_info, i64 0, i64 %46, i32 2
  %48 = load i32, ptr %47, align 4, !tbaa !19
  %49 = icmp sgt i32 %48, 19
  br i1 %49, label %50, label %53

50:                                               ; preds = %45
  %51 = load i32, ptr %5, align 4, !tbaa !3
  %52 = load i32, ptr %2, align 4, !tbaa !3
  call void (i32, ptr, ...) @pmix_output(i32 noundef %44, ptr noundef nonnull @.str.1, i32 noundef %51, i32 noundef %52) #10
  br label %53

53:                                               ; preds = %50, %45, %43
  %54 = load i32, ptr %5, align 4, !tbaa !3
  %55 = load i32, ptr %2, align 4, !tbaa !3
  %56 = icmp sgt i32 %54, %55
  br i1 %56, label %57, label %67

57:                                               ; preds = %53
  store i32 %55, ptr %5, align 4, !tbaa !3
  %58 = load i32, ptr getelementptr inbounds nuw (i8, ptr @pmix_bfrops_base_framework, i64 76), align 4, !tbaa !7
  %or.cond9 = icmp ult i32 %58, 64
  br i1 %or.cond9, label %59, label %68

59:                                               ; preds = %57
  %60 = zext nneg i32 %58 to i64
  %61 = getelementptr inbounds nuw [0 x %struct.pmix_output_desc_t], ptr @pmix_output_info, i64 0, i64 %60, i32 2
  %62 = load i32, ptr %61, align 4, !tbaa !19
  %63 = icmp sgt i32 %62, 19
  br i1 %63, label %64, label %68

64:                                               ; preds = %59
  %65 = sext i32 %55 to i64
  %66 = zext i16 %3 to i32
  call void (i32, ptr, ...) @pmix_output(i32 noundef %58, ptr noundef nonnull @.str, ptr noundef nonnull %0, ptr noundef nonnull %1, i64 noundef %65, i32 noundef %66) #10
  br label %68

67:                                               ; preds = %53
  store i32 %54, ptr %2, align 4, !tbaa !3
  br label %68

68:                                               ; preds = %57, %59, %64, %67
  %.047 = phi i32 [ 0, %67 ], [ -19, %64 ], [ -19, %59 ], [ -19, %57 ]
  %69 = call i32 @pmix20_bfrop_unpack_buffer(ptr noundef nonnull getelementptr inbounds nuw (i8, ptr @pmix_mca_bfrops_v20_component, i64 232), ptr noundef nonnull %0, ptr noundef nonnull %1, ptr noundef nonnull %5, i16 noundef zeroext %3)
  %.not62 = icmp eq i32 %69, 0
  br i1 %.not62, label %71, label %70

70:                                               ; preds = %68
  store i32 0, ptr %2, align 4, !tbaa !3
  br label %71

71:                                               ; preds = %68, %70, %14, %16, %21, %4, %.thread, %32, %29
  %.0 = phi i32 [ %28, %29 ], [ -20, %32 ], [ %.04666, %.thread ], [ -27, %4 ], [ -19, %21 ], [ -19, %16 ], [ -19, %14 ], [ %69, %70 ], [ %.047, %68 ]
  call void @llvm.lifetime.end.p0(i64 2, ptr nonnull %7) #10
  call void @llvm.lifetime.end.p0(i64 4, ptr nonnull %6) #10
  call void @llvm.lifetime.end.p0(i64 4, ptr nonnull %5) #10
  ret i32 %.0
}